target datalayout = "e-m:e-p270:32:32-p271:32:32-p272:64:64-i64:64-i128:128-f80:128-n8:16:32:64-S128"
target triple = "x86_64-pc-linux-gnu"

%struct.ImGuiStorage = type { %struct.ImVector.2 }
%struct.ImVector.2 = type { i32, i32, ptr }
%struct.ImGuiSelectionBasicStorage = type { i32, i8, ptr, ptr, i32, %struct.ImGuiStorage }
%struct.ImGuiStoragePair = type { i32, %union.anon }
%union.anon = type { ptr }

; Function Attrs: inlinehint mustprogress uwtable
define internal void @_ZL7ImQsortPvmmPFiPKvS1_E(ptr noundef %0, i64 noundef %1, i64 noundef %2, ptr noundef %3) #10 {
  %5 = alloca ptr, align 8
  %6 = alloca i64, align 8
  %7 = alloca i64, align 8
  %8 = alloca ptr, align 8
  store ptr %0, ptr %5, align 8, !tbaa !255
  store i64 %1, ptr %6, align 8, !tbaa !241
  store i64 %2, ptr %7, align 8, !tbaa !241
  store ptr %3, ptr %8, align 8, !tbaa !255
  %9 = load i64, ptr %6, align 8, !tbaa !241
  %10 = icmp ugt i64 %9, 1
  br i1 %10, label %11, label %16

11:                                               ; preds = %4
  %12 = load ptr, ptr %5, align 8, !tbaa !255
  %13 = load i64, ptr %6, align 8, !tbaa !241
  %14 = load i64, ptr %7, align 8, !tbaa !241
  %15 = load ptr, ptr %8, align 8, !tbaa !255
  call void @qsort(ptr noundef %12, i64 noundef %13, i64 noundef %14, ptr noundef %15)
  br label %16

16:                                               ; preds = %11, %4
  ret void
}

; Function Attrs: mustprogress uwtable
define dso_local noundef zeroext i1 @_ZN26ImGuiSelectionBasicStorage19GetNextSelectedItemEPPvPj(ptr noundef nonnull align 8 dereferenceable(48) %0, ptr noundef %1, ptr noundef %2) #8 align 2 {
  %4 = alloca ptr, align 8
  %5 = alloca ptr, align 8
  %6 = alloca ptr, align 8
  %7 = alloca ptr, align 8
  %8 = alloca ptr, align 8
  %9 = alloca i8, align 1
  store ptr %0, ptr %4, align 8, !tbaa !710
  store ptr %1, ptr %5, align 8, !tbaa !255
  store ptr %2, ptr %6, align 8, !tbaa !258
  %10 = load ptr, ptr %4, align 8
  call void @llvm.lifetime.start.p0(i64 8, ptr %7) #17
  %11 = load ptr, ptr %5, align 8, !tbaa !255
  %12 = load ptr, ptr %11, align 8, !tbaa !255
  store ptr %12, ptr %7, align 8, !tbaa !723
  call void @llvm.lifetime.start.p0(i64 8, ptr %8) #17
  %13 = getelementptr inbounds nuw %struct.ImGuiSelectionBasicStorage, ptr %10, i32 0, i32 5
  %14 = getelementptr inbounds nuw %struct.ImGuiStorage, ptr %13, i32 0, i32 0
  %15 = getelementptr inbounds nuw %struct.ImVector.2, ptr %14, i32 0, i32 2
  %16 = load ptr, ptr %15, align 8, !tbaa !724
  %17 = getelementptr inbounds nuw %struct.ImGuiSelectionBasicStorage, ptr %10, i32 0, i32 5
  %18 = getelementptr inbounds nuw %struct.ImGuiStorage, ptr %17, i32 0, i32 0
  %19 = getelementptr inbounds nuw %struct.ImVector.2, ptr %18, i32 0, i32 0
  %20 = load i32, ptr %19, align 8, !tbaa !725
  %21 = sext i32 %20 to i64
  %22 = getelementptr inbounds %struct.ImGuiStoragePair, ptr %16, i64 %21
  store ptr %22, ptr %8, align 8, !tbaa !723
  %23 = getelementptr inbounds nuw %struct.ImGuiSelectionBasicStorage, ptr %10, i32 0, i32 1
  %24 = load i8, ptr %23, align 4, !tbaa !714, !range !59, !noundef !60
  %25 = trunc i8 %24 to i1
  br i1 %25, label %26, label %42

26:                                               ; preds = %3
  %27 = load ptr, ptr %7, align 8, !tbaa !723
  %28 = icmp eq ptr %27, null
  br i1 %28, label %29, label %42

29:                                               ; preds = %26
  %30 = load ptr, ptr %8, align 8, !tbaa !723
  %31 = icmp ne ptr %30, null
  br i1 %31, label %32, label %42

32:                                               ; preds = %29
  %33 = getelementptr inbounds nuw %struct.ImGuiSelectionBasicStorage, ptr %10, i32 0, i32 5
  %34 = getelementptr inbounds nuw %struct.ImGuiStorage, ptr %33, i32 0, i32 0
  %35 = getelementptr inbounds nuw %struct.ImVector.2, ptr %34, i32 0, i32 2
  %36 = load ptr, ptr %35, align 8, !tbaa !724
  %37 = getelementptr inbounds nuw %struct.ImGuiSelectionBasicStorage, ptr %10, i32 0, i32 5
  %38 = getelementptr inbounds nuw %struct.ImGuiStorage, ptr %37, i32 0, i32 0
  %39 = getelementptr inbounds nuw %struct.ImVector.2, ptr %38, i32 0, i32 0
  %40 = load i32, ptr %39, align 8, !tbaa !725
  %41 = sext i32 %40 to i64
  call void @_ZL7ImQsortPvmmPFiPKvS1_E(ptr noundef %36, i64 noundef %41, i64 noundef 16, ptr noundef @_ZL22PairComparerByValueIntPKvS0_)
  br label %42

42:                                               ; preds = %32, %29, %26, %3
  %43 = load ptr, ptr %7, align 8, !tbaa !723
  %44 = icmp eq ptr %43, null
  br i1 %44, label %45, label %50

45:                                               ; preds = %42
  %46 = getelementptr inbounds nuw %struct.ImGuiSelectionBasicStorage, ptr %10, i32 0, i32 5
  %47 = getelementptr inbounds nuw %struct.ImGuiStorage, ptr %46, i32 0, i32 0
  %48 = getelementptr inbounds nuw %struct.ImVector.2, ptr %47, i32 0, i32 2
  %49 = load ptr, ptr %48, align 8, !tbaa !724
  store ptr %49, ptr %7, align 8, !tbaa !723
  br label %50

50:                                               ; preds = %45, %42
  %51 = load ptr, ptr %7, align 8, !tbaa !723
  %52 = load ptr, ptr %8, align 8, !tbaa !723
  %53 = icmp ne ptr %51, %52
  br i1 %53, label %54, label %70

54:                                               ; preds = %50
  br label %55

55:                                               ; preds = %66, %54
  %56 = load ptr, ptr %7, align 8, !tbaa !723
  %57 = getelementptr inbounds nuw %struct.ImGuiStoragePair, ptr %56, i32 0, i32 1
  %58 = load i32, ptr %57, align 8, !tbaa !380
  %59 = icmp eq i32 %58, 0
  br i1 %59, label %60, label %64

60:                                               ; preds = %55
  %61 = load ptr, ptr %7, align 8, !tbaa !723
  %62 = load ptr, ptr %8, align 8, !tbaa !723
  %63 = icmp ult ptr %61, %62
  br label %64

64:                                               ; preds = %60, %55
  %65 = phi i1 [ false, %55 ], [ %63, %60 ]
  br i1 %65, label %66, label %69

66:                                               ; preds = %64
  %67 = load ptr, ptr %7, align 8, !tbaa !723
  %68 = getelementptr inbounds nuw %struct.ImGuiStoragePair, ptr %67, i32 1
  store ptr %68, ptr %7, align 8, !tbaa !723
  br label %55, !llvm.loop !726

69:                                               ; preds = %64
  br label %70

70:                                               ; preds = %69, %50
  call void @llvm.lifetime.start.p0(i64 1, ptr %9) #17
  %71 = load ptr, ptr %7, align 8, !tbaa !723
  %72 = load ptr, ptr %8, align 8, !tbaa !723
  %73 = icmp ne ptr %71, %72
  %74 = zext i1 %73 to i8
  store i8 %74, ptr %9, align 1, !tbaa !67
  %75 = load i8, ptr %9, align 1, !tbaa !67, !range !59, !noundef !60
  %76 = trunc i8 %75 to i1
  br i1 %76, label %77, label %80

77:                                               ; preds = %70
  %78 = load ptr, ptr %7, align 8, !tbaa !723
  %79 = getelementptr inbounds %struct.ImGuiStoragePair, ptr %78, i64 1
  br label %82

80:                                               ; preds = %70
  %81 = load ptr, ptr %7, align 8, !tbaa !723
  br label %82

82:                                               ; preds = %80, %77
  %83 = phi ptr [ %79, %77 ], [ %81, %80 ]
  %84 = load ptr, ptr %5, align 8, !tbaa !255
  store ptr %83, ptr %84, align 8, !tbaa !255
  %85 = load i8, ptr %9, align 1, !tbaa !67, !range !59, !noundef !60
  %86 = trunc i8 %85 to i1
  br i1 %86, label %87, label %91

87:                                               ; preds = %82
  %88 = load ptr, ptr %7, align 8, !tbaa !723
  %89 = getelementptr inbounds nuw %struct.ImGuiStoragePair, ptr %88, i32 0, i32 0
  %90 = load i32, ptr %89, align 8, !tbaa !727
  br label %92

91:                                               ; preds = %82
  br label %92

92:                                               ; preds = %91, %87
  %93 = phi i32 [ %90, %87 ], [ 0, %91 ]
  %94 = load ptr, ptr %6, align 8, !tbaa !258
  store i32 %93, ptr %94, align 4, !tbaa !9
  %95 = getelementptr inbounds nuw %struct.ImGuiSelectionBasicStorage, ptr %10, i32 0, i32 1
  %96 = load i8, ptr %95, align 4, !tbaa !714, !range !59, !noundef !60
  %97 = trunc i8 %96 to i1
  br i1 %97, label %98, label %103

98:                                               ; preds = %92
  %99 = load i8, ptr %9, align 1, !tbaa !67, !range !59, !noundef !60
  %100 = trunc i8 %99 to i1
  br i1 %100, label %103, label %101

101:                                              ; preds = %98
  %102 = getelementptr inbounds nuw %struct.ImGuiSelectionBasicStorage, ptr %10, i32 0, i32 5
  call void @_ZN12ImGuiStorage14BuildSortByKeyEv(ptr noundef nonnull align 8 dereferenceable(16) %102)
  br label %103

103:                                              ; preds = %101, %98, %92
  %104 = load i8, ptr %9, align 1, !tbaa !67, !range !59, !noundef !60
  %105 = trunc i8 %104 to i1
  call void @llvm.lifetime.end.p0(i64 1, ptr %9) #17
  call void @llvm.lifetime.end.p0(i64 8, ptr %8) #17
  call void @llvm.lifetime.end.p0(i64 8, ptr %7) #17
  ret i1 %105
}